; Function Attrs: mustprogress uwtable
define hidden noundef zeroext i1 @_ZN15elim_bounds_cfg8is_boundEP4expr(ptr noundef nonnull align 8 dereferenceable(24) %0, ptr noundef readonly captures(none) %1) local_unnamed_addr #3 align 2 {
  %3 = alloca ptr, align 8
  %4 = alloca ptr, align 8
  call void @llvm.lifetime.start.p0(i64 8, ptr nonnull %3) #11
  call void @llvm.lifetime.start.p0(i64 8, ptr nonnull %4) #11
  %5 = call noundef zeroext i1 @_ZN15elim_bounds_cfg8is_boundEP4exprRP3varS4_(ptr noundef nonnull align 8 dereferenceable(24) %0, ptr noundef %1, ptr noundef nonnull align 8 dereferenceable(8) %3, ptr noundef nonnull align 8 dereferenceable(8) %4)
  call void @llvm.lifetime.end.p0(i64 8, ptr nonnull %4) #11
  call void @llvm.lifetime.end.p0(i64 8, ptr nonnull %3) #11
  ret i1 %5
}